target datalayout = "e-m:e-p270:32:32-p271:32:32-p272:64:64-i64:64-i128:128-f80:128-n8:16:32:64-S128"
target triple = "x86_64-pc-linux-gnu"

%struct.IDAMemRec = type { ptr, double, ptr, ptr, i32, double, double, ptr, i32, i32, ptr, ptr, i32, i32, [6 x ptr], [6 x double], [6 x double], [6 x double], [6 x double], [6 x double], ptr, ptr, ptr, ptr, ptr, ptr, ptr, ptr, ptr, ptr, ptr, ptr, ptr, ptr, ptr, ptr, ptr, double, ptr, ptr, i32, i32, i32, i32, i32, i32, i32, i32, double, double, double, i32, double, i32, i32, i32, i32, i32, double, double, double, double, double, double, double, double, double, double, double, double, double, double, double, double, i32, i32, i32, i32, i64, double, double, double, double, double, double, double, double, double, i64, i64, i64, i64, i64, i64, i64, i64, i64, i64, i64, double, i32, i32, i32, i32, i32, ptr, i32, ptr, ptr, ptr, ptr, ptr, ptr, ptr, double, i32, ptr, i32, ptr, ptr, double, double, double, ptr, ptr, ptr, double, double, i32, i32, i64, ptr, i32, [6 x double], [5 x double], [6 x ptr], [6 x ptr] }
%struct.IBBDPrecDataRec = type { i64, i64, i64, i64, double, ptr, ptr, i64, ptr, ptr, ptr, ptr, ptr, ptr, ptr, ptr, i64, i64, i64, ptr }
%struct.IDALsMemRec = type { i32, i32, i32, ptr, ptr, ptr, ptr, ptr, ptr, ptr, ptr, ptr, ptr, i32, double, double, double, i64, i64, i64, i64, i64, i64, i64, i64, i64, i64, i64, i64, i64, i64, double, i32, ptr, ptr, ptr, ptr, i32, ptr, ptr, ptr, ptr }

@.str = private unnamed_addr constant [116 x i8] c"generated/home/dtcxzyw/WorkSpace/Projects/compilers/llvm-opt-benchmark/bench/sundials/sundials/src/ida/ida_bbdpre.c\00", align 1
@.str.1 = private unnamed_addr constant [27 x i8] c"Integrator memory is NULL.\00", align 1
@.str.2 = private unnamed_addr constant [80 x i8] c"Linear solver memory is NULL. One of the SPILS linear solvers must be attached.\00", align 1
@__func__.IDABBDPrecReInit = private unnamed_addr constant [17 x i8] c"IDABBDPrecReInit\00", align 1
@.str.6 = private unnamed_addr constant [65 x i8] c"BBD peconditioner memory is NULL. IDABBDPrecInit must be called.\00", align 1

; Function Attrs: nounwind uwtable
define i32 @IDABBDPrecReInit(ptr noundef %0, i64 noundef %1, i64 noundef %2, double noundef %3) #0 {
  %5 = alloca i32, align 4
  %6 = alloca ptr, align 8
  %7 = alloca i64, align 8
  %8 = alloca i64, align 8
  %9 = alloca double, align 8
  %10 = alloca ptr, align 8
  %11 = alloca ptr, align 8
  %12 = alloca ptr, align 8
  %13 = alloca i64, align 8
  %14 = alloca i32, align 4
  store ptr %0, ptr %6, align 8, !tbaa !3
  store i64 %1, ptr %7, align 8, !tbaa !7
  store i64 %2, ptr %8, align 8, !tbaa !7
  store double %3, ptr %9, align 8, !tbaa !9
  call void @llvm.lifetime.start.p0(i64 8, ptr %10) #6
  call void @llvm.lifetime.start.p0(i64 8, ptr %11) #6
  call void @llvm.lifetime.start.p0(i64 8, ptr %12) #6
  call void @llvm.lifetime.start.p0(i64 8, ptr %13) #6
  %15 = load ptr, ptr %6, align 8, !tbaa !3
  %16 = icmp eq ptr %15, null
  br i1 %16, label %17, label %18

17:                                               ; preds = %4
  call void (ptr, i32, i32, ptr, ptr, ptr, ...) @IDAProcessError(ptr noundef null, i32 noundef -1, i32 noundef 313, ptr noundef @__func__.IDABBDPrecReInit, ptr noundef @.str, ptr noundef @.str.1)
  store i32 -1, ptr %5, align 4
  store i32 1, ptr %14, align 4
  br label %116

18:                                               ; preds = %4
  %19 = load ptr, ptr %6, align 8, !tbaa !3
  store ptr %19, ptr %10, align 8, !tbaa !11
  %20 = load ptr, ptr %10, align 8, !tbaa !11
  %21 = getelementptr inbounds nuw %struct.IDAMemRec, ptr %20, i32 0, i32 113
  %22 = load ptr, ptr %21, align 8, !tbaa !13
  %23 = icmp eq ptr %22, null
  br i1 %23, label %24, label %26

24:                                               ; preds = %18
  %25 = load ptr, ptr %10, align 8, !tbaa !11
  call void (ptr, i32, i32, ptr, ptr, ptr, ...) @IDAProcessError(ptr noundef %25, i32 noundef -2, i32 noundef 322, ptr noundef @__func__.IDABBDPrecReInit, ptr noundef @.str, ptr noundef @.str.2)
  store i32 -2, ptr %5, align 4
  store i32 1, ptr %14, align 4
  br label %116

26:                                               ; preds = %18
  %27 = load ptr, ptr %10, align 8, !tbaa !11
  %28 = getelementptr inbounds nuw %struct.IDAMemRec, ptr %27, i32 0, i32 113
  %29 = load ptr, ptr %28, align 8, !tbaa !13
  store ptr %29, ptr %11, align 8, !tbaa !21
  %30 = load ptr, ptr %11, align 8, !tbaa !21
  %31 = getelementptr inbounds nuw %struct.IDALsMemRec, ptr %30, i32 0, i32 36
  %32 = load ptr, ptr %31, align 8, !tbaa !70
  %33 = icmp eq ptr %32, null
  br i1 %33, label %34, label %36

34:                                               ; preds = %26
  %35 = load ptr, ptr %10, align 8, !tbaa !11
  call void (ptr, i32, i32, ptr, ptr, ptr, ...) @IDAProcessError(ptr noundef %35, i32 noundef -5, i32 noundef 331, ptr noundef @__func__.IDABBDPrecReInit, ptr noundef @.str, ptr noundef @.str.6)
  store i32 -5, ptr %5, align 4
  store i32 1, ptr %14, align 4
  br label %116

36:                                               ; preds = %26
  %37 = load ptr, ptr %11, align 8, !tbaa !21
  %38 = getelementptr inbounds nuw %struct.IDALsMemRec, ptr %37, i32 0, i32 36
  %39 = load ptr, ptr %38, align 8, !tbaa !70
  store ptr %39, ptr %12, align 8, !tbaa !29
  %40 = load ptr, ptr %12, align 8, !tbaa !29
  %41 = getelementptr inbounds nuw %struct.IBBDPrecDataRec, ptr %40, i32 0, i32 7
  %42 = load i64, ptr %41, align 8, !tbaa !53
  store i64 %42, ptr %13, align 8, !tbaa !7
  %43 = load i64, ptr %13, align 8, !tbaa !7
  %44 = sub nsw i64 %43, 1
  %45 = load i64, ptr %7, align 8, !tbaa !7
  %46 = icmp sgt i64 0, %45
  br i1 %46, label %47, label %48

47:                                               ; preds = %36
  br label %50

48:                                               ; preds = %36
  %49 = load i64, ptr %7, align 8, !tbaa !7
  br label %50

50:                                               ; preds = %48, %47
  %51 = phi i64 [ 0, %47 ], [ %49, %48 ]
  %52 = icmp slt i64 %44, %51
  br i1 %52, label %53, label %56

53:                                               ; preds = %50
  %54 = load i64, ptr %13, align 8, !tbaa !7
  %55 = sub nsw i64 %54, 1
  br label %64

56:                                               ; preds = %50
  %57 = load i64, ptr %7, align 8, !tbaa !7
  %58 = icmp sgt i64 0, %57
  br i1 %58, label %59, label %60

59:                                               ; preds = %56
  br label %62

60:                                               ; preds = %56
  %61 = load i64, ptr %7, align 8, !tbaa !7
  br label %62

62:                                               ; preds = %60, %59
  %63 = phi i64 [ 0, %59 ], [ %61, %60 ]
  br label %64

64:                                               ; preds = %62, %53
  %65 = phi i64 [ %55, %53 ], [ %63, %62 ]
  %66 = load ptr, ptr %12, align 8, !tbaa !29
  %67 = getelementptr inbounds nuw %struct.IBBDPrecDataRec, ptr %66, i32 0, i32 0
  store i64 %65, ptr %67, align 8, !tbaa !37
  %68 = load i64, ptr %13, align 8, !tbaa !7
  %69 = sub nsw i64 %68, 1
  %70 = load i64, ptr %8, align 8, !tbaa !7
  %71 = icmp sgt i64 0, %70
  br i1 %71, label %72, label %73

72:                                               ; preds = %64
  br label %75

73:                                               ; preds = %64
  %74 = load i64, ptr %8, align 8, !tbaa !7
  br label %75

75:                                               ; preds = %73, %72
  %76 = phi i64 [ 0, %72 ], [ %74, %73 ]
  %77 = icmp slt i64 %69, %76
  br i1 %77, label %78, label %81

78:                                               ; preds = %75
  %79 = load i64, ptr %13, align 8, !tbaa !7
  %80 = sub nsw i64 %79, 1
  br label %89

81:                                               ; preds = %75
  %82 = load i64, ptr %8, align 8, !tbaa !7
  %83 = icmp sgt i64 0, %82
  br i1 %83, label %84, label %85

84:                                               ; preds = %81
  br label %87

85:                                               ; preds = %81
  %86 = load i64, ptr %8, align 8, !tbaa !7
  br label %87

87:                                               ; preds = %85, %84
  %88 = phi i64 [ 0, %84 ], [ %86, %85 ]
  br label %89

89:                                               ; preds = %87, %78
  %90 = phi i64 [ %80, %78 ], [ %88, %87 ]
  %91 = load ptr, ptr %12, align 8, !tbaa !29
  %92 = getelementptr inbounds nuw %struct.IBBDPrecDataRec, ptr %91, i32 0, i32 1
  store i64 %90, ptr %92, align 8, !tbaa !38
  %93 = load double, ptr %9, align 8, !tbaa !9
  %94 = fcmp ogt double %93, 0.000000e+00
  br i1 %94, label %95, label %97

95:                                               ; preds = %89
  %96 = load double, ptr %9, align 8, !tbaa !9
  br label %110

97:                                               ; preds = %89
  %98 = load ptr, ptr %10, align 8, !tbaa !11
  %99 = getelementptr inbounds nuw %struct.IDAMemRec, ptr %98, i32 0, i32 1
  %100 = load double, ptr %99, align 8, !tbaa !51
  %101 = fcmp ole double %100, 0.000000e+00
  br i1 %101, label %102, label %103

102:                                              ; preds = %97
  br label %108

103:                                              ; preds = %97
  %104 = load ptr, ptr %10, align 8, !tbaa !11
  %105 = getelementptr inbounds nuw %struct.IDAMemRec, ptr %104, i32 0, i32 1
  %106 = load double, ptr %105, align 8, !tbaa !51
  %107 = call double @sqrt(double noundef %106) #6, !tbaa !50
  br label %108

108:                                              ; preds = %103, %102
  %109 = phi double [ 0.000000e+00, %102 ], [ %107, %103 ]
  br label %110

110:                                              ; preds = %108, %95
  %111 = phi double [ %96, %95 ], [ %109, %108 ]
  %112 = load ptr, ptr %12, align 8, !tbaa !29
  %113 = getelementptr inbounds nuw %struct.IBBDPrecDataRec, ptr %112, i32 0, i32 4
  store double %111, ptr %113, align 8, !tbaa !52
  %114 = load ptr, ptr %12, align 8, !tbaa !29
  %115 = getelementptr inbounds nuw %struct.IBBDPrecDataRec, ptr %114, i32 0, i32 18
  store i64 0, ptr %115, align 8, !tbaa !67
  store i32 0, ptr %5, align 4
  store i32 1, ptr %14, align 4
  br label %116

116:                                              ; preds = %110, %34, %24, %17
  call void @llvm.lifetime.end.p0(i64 8, ptr %13) #6
  call void @llvm.lifetime.end.p0(i64 8, ptr %12) #6
  call void @llvm.lifetime.end.p0(i64 8, ptr %11) #6
  call void @llvm.lifetime.end.p0(i64 8, ptr %10) #6
  %117 = load i32, ptr %5, align 4
  ret i32 %117
}