; Function Attrs: nounwind uwtable
define range(i32 -5, 1) i32 @IDABBDPrecReInit(ptr noundef %0, i64 noundef %1, i64 noundef %2, double noundef %3) local_unnamed_addr #0 {
  %5 = icmp eq ptr %0, null
  br i1 %5, label %6, label %7

6:                                                ; preds = %4
  tail call void (ptr, i32, i32, ptr, ptr, ptr, ...) @IDAProcessError(ptr noundef null, i32 noundef -1, i32 noundef 313, ptr noundef nonnull @__func__.IDABBDPrecReInit, ptr noundef nonnull @.str, ptr noundef nonnull @.str.1) #9
  br label %36

7:                                                ; preds = %4
  %8 = getelementptr inbounds nuw i8, ptr %0, i64 1048
  %9 = load ptr, ptr %8, align 8, !tbaa !3
  %10 = icmp eq ptr %9, null
  br i1 %10, label %11, label %12

11:                                               ; preds = %7
  tail call void (ptr, i32, i32, ptr, ptr, ptr, ...) @IDAProcessError(ptr noundef nonnull %0, i32 noundef -2, i32 noundef 322, ptr noundef nonnull @__func__.IDABBDPrecReInit, ptr noundef nonnull @.str, ptr noundef nonnull @.str.2) #9
  br label %36

12:                                               ; preds = %7
  %13 = getelementptr inbounds nuw i8, ptr %9, i64 280
  %14 = load ptr, ptr %13, align 8, !tbaa !62
  %15 = icmp eq ptr %14, null
  br i1 %15, label %16, label %17

16:                                               ; preds = %12
  tail call void (ptr, i32, i32, ptr, ptr, ptr, ...) @IDAProcessError(ptr noundef nonnull %0, i32 noundef -5, i32 noundef 331, ptr noundef nonnull @__func__.IDABBDPrecReInit, ptr noundef nonnull @.str, ptr noundef nonnull @.str.6) #9
  br label %36

17:                                               ; preds = %12
  %18 = getelementptr inbounds nuw i8, ptr %14, i64 56
  %19 = load i64, ptr %18, align 8, !tbaa !44
  %20 = add nsw i64 %19, -1
  %21 = tail call i64 @llvm.smax.i64(i64 %1, i64 0)
  %.not = icmp sgt i64 %19, %21
  %. = select i1 %.not, i64 %21, i64 %20
  store i64 %., ptr %14, align 8, !tbaa !28
  %22 = tail call i64 @llvm.smax.i64(i64 %2, i64 0)
  %.not37 = icmp sgt i64 %19, %22
  %23 = select i1 %.not37, i64 %22, i64 %20
  %24 = getelementptr inbounds nuw i8, ptr %14, i64 8
  store i64 %23, ptr %24, align 8, !tbaa !29
  %25 = fcmp ogt double %3, 0.000000e+00
  br i1 %25, label %32, label %26

26:                                               ; preds = %17
  %27 = getelementptr inbounds nuw i8, ptr %0, i64 8
  %28 = load double, ptr %27, align 8, !tbaa !41
  %29 = fcmp ugt double %28, 0.000000e+00
  br i1 %29, label %30, label %32

30:                                               ; preds = %26
  %31 = tail call double @sqrt(double noundef %28) #9, !tbaa !42
  br label %32

32:                                               ; preds = %17, %30, %26
  %33 = phi double [ %31, %30 ], [ 0.000000e+00, %26 ], [ %3, %17 ]
  %34 = getelementptr inbounds nuw i8, ptr %14, i64 32
  store double %33, ptr %34, align 8, !tbaa !43
  %35 = getelementptr inbounds nuw i8, ptr %14, i64 144
  store i64 0, ptr %35, align 8, !tbaa !59
  br label %36

36:                                               ; preds = %32, %16, %11, %6
  %.0 = phi i32 [ -1, %6 ], [ -2, %11 ], [ -5, %16 ], [ 0, %32 ]
  ret i32 %.0
}